; ModuleID = 'source-C-CXX/48/1302.cpp'
source_filename = "source-C-CXX/48/1302.cpp"
target datalayout = "e-m:e-p270:32:32-p271:32:32-p272:64:64-i64:64-f80:128-n8:16:32:64-S128"
target triple = "x86_64-pc-linux-gnu"

%"class.std::ios_base::Init" = type { i8 }
%"class.std::basic_istream" = type { i32 (...)**, i64, %"class.std::basic_ios" }
%"class.std::basic_ios" = type { %"class.std::ios_base", %"class.std::basic_ostream"*, i8, i8, %"class.std::basic_streambuf"*, %"class.std::ctype"*, %"class.std::num_put"*, %"class.std::num_get"* }
%"class.std::ios_base" = type { i32 (...)**, i64, i64, i32, i32, i32, %"struct.std::ios_base::_Callback_list"*, %"struct.std::ios_base::_Words", [8 x %"struct.std::ios_base::_Words"], i32, %"struct.std::ios_base::_Words"*, %"class.std::locale" }
%"struct.std::ios_base::_Callback_list" = type { %"struct.std::ios_base::_Callback_list"*, void (i32, %"class.std::ios_base"*, i32)*, i32, i32 }
%"struct.std::ios_base::_Words" = type { i8*, i64 }
%"class.std::locale" = type { %"class.std::locale::_Impl"* }
%"class.std::locale::_Impl" = type { i32, %"class.std::locale::facet"**, i64, %"class.std::locale::facet"**, i8** }
%"class.std::locale::facet" = type <{ i32 (...)**, i32, [4 x i8] }>
%"class.std::basic_ostream" = type { i32 (...)**, %"class.std::basic_ios" }
%"class.std::basic_streambuf" = type { i32 (...)**, i8*, i8*, i8*, i8*, i8*, i8*, %"class.std::locale" }
%"class.std::ctype" = type <{ %"class.std::locale::facet.base", [4 x i8], %struct.__locale_struct*, i8, [7 x i8], i32*, i32*, i16*, i8, [256 x i8], [256 x i8], i8, [6 x i8] }>
%"class.std::locale::facet.base" = type <{ i32 (...)**, i32 }>
%struct.__locale_struct = type { [13 x %struct.__locale_data*], i16*, i32*, i32*, [13 x i8*] }
%struct.__locale_data = type opaque
%"class.std::num_put" = type { %"class.std::locale::facet.base", [4 x i8] }
%"class.std::num_get" = type { %"class.std::locale::facet.base", [4 x i8] }

@_ZStL8__ioinit = internal global %"class.std::ios_base::Init" zeroinitializer, align 1
@__dso_handle = external hidden global i8
@str = dso_local global [510 x i8] zeroinitializer, align 16
@flag = dso_local local_unnamed_addr global [510 x i32] zeroinitializer, align 16
@_ZSt3cin = external global %"class.std::basic_istream", align 8
@_ZSt4cout = external global %"class.std::basic_ostream", align 8
@llvm.global_ctors = appending global [1 x { i32, void ()*, i8* }] [{ i32, void ()*, i8* } { i32 65535, void ()* @_GLOBAL__sub_I_1302.cpp, i8* null }]

declare void @_ZNSt8ios_base4InitC1Ev(%"class.std::ios_base::Init"* nonnull align 1 dereferenceable(1)) unnamed_addr #0

; Function Attrs: nounwind
declare void @_ZNSt8ios_base4InitD1Ev(%"class.std::ios_base::Init"* nonnull align 1 dereferenceable(1)) unnamed_addr #1

; Function Attrs: nofree nounwind
declare i32 @__cxa_atexit(void (i8*)*, i8*, i8*) local_unnamed_addr #2

; Function Attrs: mustprogress nofree nosync nounwind readonly sspstrong uwtable willreturn
define dso_local i32 @_Z5checkii(i32 %0, i32 %1) local_unnamed_addr #3 {
  %3 = sext i32 %0 to i64
  %4 = sext i32 %1 to i64
  br label %5

5:                                                ; preds = %16, %2
  %6 = phi i64 [ %18, %16 ], [ %4, %2 ]
  %7 = phi i64 [ %17, %16 ], [ %3, %2 ]
  %8 = trunc i64 %6 to i32
  switch i32 %8, label %9 [
    i32 0, label %19
    i32 -1, label %19
  ]

9:                                                ; preds = %5
  %10 = getelementptr inbounds [510 x i8], [510 x i8]* @str, i64 0, i64 %7
  %11 = load i8, i8* %10, align 1, !tbaa !5
  %12 = add nsw i64 %6, %7
  %13 = getelementptr inbounds [510 x i8], [510 x i8]* @str, i64 0, i64 %12
  %14 = load i8, i8* %13, align 1, !tbaa !5
  %15 = icmp eq i8 %11, %14
  br i1 %15, label %16, label %19

16:                                               ; preds = %9
  %17 = add i64 %7, 1
  %18 = add i64 %6, -2
  br label %5

19:                                               ; preds = %9, %5, %5
  %20 = phi i32 [ 1, %5 ], [ 1, %5 ], [ 0, %9 ]
  ret i32 %20
}

; Function Attrs: mustprogress norecurse sspstrong uwtable
define dso_local i32 @main() local_unnamed_addr #4 {
  %1 = alloca i8, align 1
  %2 = load i8*, i8** bitcast (%"class.std::basic_istream"* @_ZSt3cin to i8**), align 8, !tbaa !8
  %3 = getelementptr i8, i8* %2, i64 -24
  %4 = bitcast i8* %3 to i64*
  %5 = load i64, i64* %4, align 8
  %6 = add nsw i64 %5, 240
  %7 = getelementptr inbounds i8, i8* bitcast (%"class.std::basic_istream"* @_ZSt3cin to i8*), i64 %6
  %8 = bitcast i8* %7 to %"class.std::ctype"**
  %9 = load %"class.std::ctype"*, %"class.std::ctype"** %8, align 8, !tbaa !10
  %10 = icmp eq %"class.std::ctype"* %9, null
  br i1 %10, label %11, label %12

11:                                               ; preds = %0
  tail call void @_ZSt16__throw_bad_castv() #9
  unreachable

12:                                               ; preds = %0
  %13 = getelementptr inbounds %"class.std::ctype", %"class.std::ctype"* %9, i64 0, i32 8
  %14 = load i8, i8* %13, align 8, !tbaa !14
  %15 = icmp eq i8 %14, 0
  br i1 %15, label %19, label %16

16:                                               ; preds = %12
  %17 = getelementptr inbounds %"class.std::ctype", %"class.std::ctype"* %9, i64 0, i32 9, i64 10
  %18 = load i8, i8* %17, align 1, !tbaa !5
  br label %25

19:                                               ; preds = %12
  tail call void @_ZNKSt5ctypeIcE13_M_widen_initEv(%"class.std::ctype"* nonnull align 8 dereferenceable(570) %9)
  %20 = bitcast %"class.std::ctype"* %9 to i8 (%"class.std::ctype"*, i8)***
  %21 = load i8 (%"class.std::ctype"*, i8)**, i8 (%"class.std::ctype"*, i8)*** %20, align 8, !tbaa !8
  %22 = getelementptr inbounds i8 (%"class.std::ctype"*, i8)*, i8 (%"class.std::ctype"*, i8)** %21, i64 6
  %23 = load i8 (%"class.std::ctype"*, i8)*, i8 (%"class.std::ctype"*, i8)** %22, align 8
  %24 = tail call signext i8 %23(%"class.std::ctype"* nonnull align 8 dereferenceable(570) %9, i8 signext 10)
  br label %25

25:                                               ; preds = %16, %19
  %26 = phi i8 [ %18, %16 ], [ %24, %19 ]
  %27 = tail call nonnull align 8 dereferenceable(16) %"class.std::basic_istream"* @_ZNSi7getlineEPclc(%"class.std::basic_istream"* nonnull align 8 dereferenceable(16) @_ZSt3cin, i8* getelementptr inbounds ([510 x i8], [510 x i8]* @str, i64 0, i64 0), i64 500, i8 signext %26)
  %28 = tail call i64 @strlen(i8* noundef nonnull dereferenceable(1) getelementptr inbounds ([510 x i8], [510 x i8]* @str, i64 0, i64 0)) #10
  %29 = trunc i64 %28 to i32
  %30 = icmp sgt i32 %29, 1
  br i1 %30, label %31, label %100

31:                                               ; preds = %25
  %32 = and i64 %28, 4294967295
  br label %33

33:                                               ; preds = %31, %96
  %34 = phi i64 [ 1, %31 ], [ %97, %96 ]
  %35 = phi i32 [ %29, %31 ], [ %98, %96 ]
  %36 = trunc i64 %34 to i32
  %37 = icmp slt i32 %29, %36
  br i1 %37, label %96, label %38

38:                                               ; preds = %33
  %39 = zext i32 %35 to i64
  br label %40

40:                                               ; preds = %38, %93
  %41 = phi i64 [ 0, %38 ], [ %94, %93 ]
  br label %42

42:                                               ; preds = %53, %40
  %43 = phi i64 [ %55, %53 ], [ %34, %40 ]
  %44 = phi i64 [ %54, %53 ], [ %41, %40 ]
  %45 = trunc i64 %43 to i32
  switch i32 %45, label %46 [
    i32 0, label %56
    i32 -1, label %56
  ]

46:                                               ; preds = %42
  %47 = getelementptr inbounds [510 x i8], [510 x i8]* @str, i64 0, i64 %44
  %48 = load i8, i8* %47, align 1, !tbaa !5
  %49 = add nsw i64 %44, %43
  %50 = getelementptr inbounds [510 x i8], [510 x i8]* @str, i64 0, i64 %49
  %51 = load i8, i8* %50, align 1, !tbaa !5
  %52 = icmp eq i8 %48, %51
  br i1 %52, label %53, label %93

53:                                               ; preds = %46
  %54 = add i64 %44, 1
  %55 = add i64 %43, -2
  br label %42

56:                                               ; preds = %42, %42
  %57 = add nuw nsw i64 %41, %34
  br label %58

58:                                               ; preds = %56, %58
  %59 = phi i64 [ %41, %56 ], [ %63, %58 ]
  %60 = getelementptr inbounds [510 x i8], [510 x i8]* @str, i64 0, i64 %59
  %61 = load i8, i8* %60, align 1, !tbaa !5
  call void @llvm.lifetime.start.p0i8(i64 1, i8* nonnull %1)
  store i8 %61, i8* %1, align 1, !tbaa !5
  %62 = call nonnull align 8 dereferenceable(8) %"class.std::basic_ostream"* @_ZSt16__ostream_insertIcSt11char_traitsIcEERSt13basic_ostreamIT_T0_ES6_PKS3_l(%"class.std::basic_ostream"* nonnull align 8 dereferenceable(8) @_ZSt4cout, i8* nonnull %1, i64 1)
  call void @llvm.lifetime.end.p0i8(i64 1, i8* nonnull %1)
  %63 = add nuw nsw i64 %59, 1
  %64 = icmp ult i64 %59, %57
  br i1 %64, label %58, label %65, !llvm.loop !16

65:                                               ; preds = %58
  %66 = load i8*, i8** bitcast (%"class.std::basic_ostream"* @_ZSt4cout to i8**), align 8, !tbaa !8
  %67 = getelementptr i8, i8* %66, i64 -24
  %68 = bitcast i8* %67 to i64*
  %69 = load i64, i64* %68, align 8
  %70 = add nsw i64 %69, 240
  %71 = getelementptr inbounds i8, i8* bitcast (%"class.std::basic_ostream"* @_ZSt4cout to i8*), i64 %70
  %72 = bitcast i8* %71 to %"class.std::ctype"**
  %73 = load %"class.std::ctype"*, %"class.std::ctype"** %72, align 8, !tbaa !10
  %74 = icmp eq %"class.std::ctype"* %73, null
  br i1 %74, label %75, label %76

75:                                               ; preds = %65
  call void @_ZSt16__throw_bad_castv() #9
  unreachable

76:                                               ; preds = %65
  %77 = getelementptr inbounds %"class.std::ctype", %"class.std::ctype"* %73, i64 0, i32 8
  %78 = load i8, i8* %77, align 8, !tbaa !14
  %79 = icmp eq i8 %78, 0
  br i1 %79, label %83, label %80

80:                                               ; preds = %76
  %81 = getelementptr inbounds %"class.std::ctype", %"class.std::ctype"* %73, i64 0, i32 9, i64 10
  %82 = load i8, i8* %81, align 1, !tbaa !5
  br label %89

83:                                               ; preds = %76
  call void @_ZNKSt5ctypeIcE13_M_widen_initEv(%"class.std::ctype"* nonnull align 8 dereferenceable(570) %73)
  %84 = bitcast %"class.std::ctype"* %73 to i8 (%"class.std::ctype"*, i8)***
  %85 = load i8 (%"class.std::ctype"*, i8)**, i8 (%"class.std::ctype"*, i8)*** %84, align 8, !tbaa !8
  %86 = getelementptr inbounds i8 (%"class.std::ctype"*, i8)*, i8 (%"class.std::ctype"*, i8)** %85, i64 6
  %87 = load i8 (%"class.std::ctype"*, i8)*, i8 (%"class.std::ctype"*, i8)** %86, align 8
  %88 = call signext i8 %87(%"class.std::ctype"* nonnull align 8 dereferenceable(570) %73, i8 signext 10)
  br label %89

89:                                               ; preds = %80, %83
  %90 = phi i8 [ %82, %80 ], [ %88, %83 ]
  %91 = call nonnull align 8 dereferenceable(8) %"class.std::basic_ostream"* @_ZNSo3putEc(%"class.std::basic_ostream"* nonnull align 8 dereferenceable(8) @_ZSt4cout, i8 signext %90)
  %92 = call nonnull align 8 dereferenceable(8) %"class.std::basic_ostream"* @_ZNSo5flushEv(%"class.std::basic_ostream"* nonnull align 8 dereferenceable(8) %91)
  br label %93

93:                                               ; preds = %46, %89
  %94 = add nuw nsw i64 %41, 1
  %95 = icmp eq i64 %94, %39
  br i1 %95, label %96, label %40, !llvm.loop !18

96:                                               ; preds = %93, %33
  %97 = add nuw nsw i64 %34, 1
  %98 = add i32 %35, -1
  %99 = icmp eq i64 %97, %32
  br i1 %99, label %100, label %33, !llvm.loop !19

100:                                              ; preds = %96, %25
  ret i32 0
}

; Function Attrs: argmemonly mustprogress nofree nounwind readonly willreturn
declare i64 @strlen(i8* nocapture) local_unnamed_addr #5

declare nonnull align 8 dereferenceable(16) %"class.std::basic_istream"* @_ZNSi7getlineEPclc(%"class.std::basic_istream"* nonnull align 8 dereferenceable(16), i8*, i64, i8 signext) local_unnamed_addr #0

; Function Attrs: noreturn
declare void @_ZSt16__throw_bad_castv() local_unnamed_addr #6

declare void @_ZNKSt5ctypeIcE13_M_widen_initEv(%"class.std::ctype"* nonnull align 8 dereferenceable(570)) local_unnamed_addr #0

declare nonnull align 8 dereferenceable(8) %"class.std::basic_ostream"* @_ZSt16__ostream_insertIcSt11char_traitsIcEERSt13basic_ostreamIT_T0_ES6_PKS3_l(%"class.std::basic_ostream"* nonnull align 8 dereferenceable(8), i8*, i64) local_unnamed_addr #0

declare nonnull align 8 dereferenceable(8) %"class.std::basic_ostream"* @_ZNSo3putEc(%"class.std::basic_ostream"* nonnull align 8 dereferenceable(8), i8 signext) local_unnamed_addr #0

declare nonnull align 8 dereferenceable(8) %"class.std::basic_ostream"* @_ZNSo5flushEv(%"class.std::basic_ostream"* nonnull align 8 dereferenceable(8)) local_unnamed_addr #0

; Function Attrs: sspstrong uwtable
define internal void @_GLOBAL__sub_I_1302.cpp() #7 section ".text.startup" {
  tail call void @_ZNSt8ios_base4InitC1Ev(%"class.std::ios_base::Init"* nonnull align 1 dereferenceable(1) @_ZStL8__ioinit)
  %1 = tail call i32 @__cxa_atexit(void (i8*)* bitcast (void (%"class.std::ios_base::Init"*)* @_ZNSt8ios_base4InitD1Ev to void (i8*)*), i8* getelementptr inbounds (%"class.std::ios_base::Init", %"class.std::ios_base::Init"* @_ZStL8__ioinit, i64 0, i32 0), i8* nonnull @__dso_handle) #11
  ret void
}

; Function Attrs: argmemonly nofree nosync nounwind willreturn
declare void @llvm.lifetime.start.p0i8(i64 immarg, i8* nocapture) #8

; Function Attrs: argmemonly nofree nosync nounwind willreturn
declare void @llvm.lifetime.end.p0i8(i64 immarg, i8* nocapture) #8


!llvm.module.flags = !{!0, !1, !2, !3}
!llvm.ident = !{!4}

!0 = !{i32 1, !"wchar_size", i32 4}
!1 = !{i32 7, !"PIC Level", i32 2}
!2 = !{i32 7, !"PIE Level", i32 2}
!3 = !{i32 7, !"uwtable", i32 1}
!4 = !{!"clang version 13.0.0"}
!5 = !{!6, !6, i64 0}
!6 = !{!"omnipotent char", !7, i64 0}
!7 = !{!"Simple C++ TBAA"}
!8 = !{!9, !9, i64 0}
!9 = !{!"vtable pointer", !7, i64 0}
!10 = !{!11, !12, i64 240}
!11 = !{!"_ZTSSt9basic_iosIcSt11char_traitsIcEE", !12, i64 216, !6, i64 224, !13, i64 225, !12, i64 232, !12, i64 240, !12, i64 248, !12, i64 256}
!12 = !{!"any pointer", !6, i64 0}
!13 = !{!"bool", !6, i64 0}
!14 = !{!15, !6, i64 56}
!15 = !{!"_ZTSSt5ctypeIcE", !12, i64 16, !13, i64 24, !12, i64 32, !12, i64 40, !12, i64 48, !6, i64 56, !6, i64 57, !6, i64 313, !6, i64 569}
!16 = distinct !{!16, !17}
!17 = !{!"llvm.loop.mustprogress"}
!18 = distinct !{!18, !17}
!19 = distinct !{!19, !17}
